; Function Attrs: nounwind uwtable
define internal ptr @GENERIC_User_Create(ptr noundef %0, ptr noundef %1, i32 %2) #0 {
  %4 = tail call ptr @SDL_GetPrefPath_REAL(ptr noundef %0, ptr noundef %1) #4
  %5 = icmp eq ptr %4, null
  br i1 %5, label %10, label %6

6:                                                ; preds = %3
  %7 = tail call ptr @SDL_OpenStorage_REAL(ptr noundef nonnull @GENERIC_user_iface, ptr noundef nonnull %4) #4
  %8 = icmp eq ptr %7, null
  br i1 %8, label %9, label %10

9:                                                ; preds = %6
  tail call void @SDL_free_REAL(ptr noundef nonnull %4) #4
  br label %10

10:                                               ; preds = %6, %9, %3
  %.0 = phi ptr [ null, %3 ], [ null, %9 ], [ %7, %6 ]
  ret ptr %.0
}